(dp0
S'Commerce_goods-transfer'
p1
I273
sS'Making_arrangements'
p2
I698
sS'Practice'
p3
I844
sS'Repayment'
p4
I962
sS'Planting'
p5
I828
sS'Cause_to_rot'
p6
I221
sS'Shoot_projectiles'
p7
I1034
sS'Reporting'
p8
I965
sS'Process_resume'
p9
I874
sS'Hunting_scenario'
p10
I579
sS'Mental_stimulus_exp_focus'
p11
I735
sS'Becoming_silent'
p12
I113
sS'Thriving'
p13
I1136
sS'Activity_paused_state'
p14
I20
sS'Excreting'
p15
I452
sS'Waiting'
p16
I1206
sS'Disgraceful_situation'
p17
I374
sS'Inhibit_motion_scenario'
p18
I614
sS'Supporting'
p19
I1103
sS'Strictness'
p20
I1084
sS'Kinship'
p21
I646
sS'Attending'
p22
I86
sS'Importance'
p23
I590
sS'Employment_continue'
p24
I421
sS'Adjusting'
p25
I31
sS'Releasing_from_custody'
p26
I947
sS'Remainder'
p27
I951
sS'Cause_proliferation_in_number'
p28
I203
sS'Destroying'
p29
I362
sS'Beyond_compare'
p30
I145
sS'Theft'
p31
I1134
sS'Post_getting'
p32
I838
sS'Resurrection'
p33
I984
sS'Fluidic_motion'
p34
I504
sS'Encounter'
p35
I427
sS'Symmetrical_collective_reciprocality'
p36
I1110
sS'Change_resistance'
p37
I240
sS'Getting_up'
p38
I530
sS'Key'
p39
I643
sS'Individual_history'
p40
I603
sS'Storing'
p41
I1083
sS'Cause_harm'
p42
I200
sS'Operate_vehicle_scenario'
p43
I776
sS'Be_subset_of'
p44
I102
sS'Tolerating'
p45
I1142
sS'Arriving'
p46
I64
sS'Fastener'
p47
I482
sS'People_by_jurisdiction'
p48
I806
sS'Success_or_failure'
p49
I1095
sS'Military'
p50
I738
sS'Serving_in_capacity'
p51
I1021
sS'Feeling'
p52
I484
sS'Breaking_out_captive'
p53
I168
sS'Being_in_control'
p54
I127
sS'Origin'
p55
I784
sS'Hostile_encounter'
p56
I577
sS'Remembering_to_do'
p57
I954
sS'Repel'
p58
I963
sS'Presence'
p59
I859
sS'Becoming_separated'
p60
I112
sS'Fall_for'
p61
I479
sS'Perception_active'
p62
I814
sS'Becoming_attached'
p63
I108
sS'Rest'
p64
I982
sS'Competition'
p65
I292
sS'Entity'
p66
I432
sS'Network'
p67
I755
sS'Government_institution'
p68
I541
sS'Short_selling'
p69
I1037
sS'Preserving'
p70
I861
sS'Location_on_path'
p71
I680
sS'Summarizing'
p72
I1101
sS'Giving_birth'
p73
I534
sS'Simple_name'
p74
I1043
sS'Expensiveness'
p75
I463
sS'Emotion_heat'
p76
I411
sS'Being_employed'
p77
I124
sS'Justifying'
p78
I642
sS'Come_into_effect'
p79
I265
sS'Arrest'
p80
I63
sS'Path_traveled'
p81
I800
sS'Forming_relationships'
p82
I511
sS'Reshaping'
p83
I975
sS'Firing_point'
p84
I500
sS'Conduct'
p85
I300
sS'Topic'
p86
I1144
sS'Medical_conditions'
p87
I719
sS'Being_contained_within'
p88
I121
sS'Participation'
p89
I795
sS'Arithmetic_commutative'
p90
I58
sS'Cause_to_amalgamate'
p91
I205
sS'Come_together'
p92
I266
sS'Collaboration'
p93
I259
sS'Thermodynamic_phase'
p94
I1135
sS'Growing_food'
p95
I550
sS'Questioning'
p96
I905
sS'Precariousness'
p97
I852
sS'Undergo_transformation'
p98
I1170
sS'Leaving_traces'
p99
I655
sS'Attempt_obtain_mineral_scenario'
p100
I83
sS'Intoxication'
p101
I630
sS'Clemency'
p102
I250
sS'Sound_movement'
p103
I1063
sS'Losing_track_of'
p104
I689
sS'Purpose'
p105
I900
sS'Bail_decision'
p106
I97
sS'Name_conferral'
p107
I749
sS'Defending'
p108
I349
sS'Plants'
p109
I829
sS'Taking_captive'
p110
I1115
sS'Dunking'
p111
I391
sS'Surrendering_possession'
p112
I1106
sS'Emphasizing'
p113
I417
sS'Building_subparts'
p114
I172
sS'Level_of_light'
p115
I662
sS'Age'
p116
I35
sS'Holding_off_on'
p117
I575
sS'Process_completed_state'
p118
I869
sS'Labeling'
p119
I649
sS'Communication_manner'
p120
I284
sS'Successful_action'
p121
I1096
sS'Post_receiving'
p122
I841
sS'Dynamism'
p123
I398
sS'Carry_goods'
p124
I185
sS'Identity_scenario'
p125
I583
sS'Lose_possession_scenario'
p126
I685
sS'Reserving'
p127
I974
sS'Receive_visitor_scenario'
p128
I924
sS'Dimension'
p129
I368
sS'Activity_done_state'
p130
I16
sS'Awareness_situation'
p131
I95
sS'Time_period_of_action'
p132
I1138
sS'Aesthetics'
p133
I33
sS'State'
p134
I1076
sS'Fleeing'
p135
I503
sS'Personal_success'
p136
I821
sS'Being_in_operation'
p137
I129
sS'Causation'
p138
I189
sS'Imprisonment'
p139
I594
sS'Continued_state_of_affairs'
p140
I314
sS'Hindering'
p141
I568
sS'Reassuring'
p142
I922
sS'Fire_burning'
p143
I493
sS'Connectors'
p144
I304
sS'Spatial_contact'
p145
I1068
sS'Vehicle_landing'
p146
I1183
sS'Locative_relation'
p147
I681
sS'Choosing'
p148
I246
sS'Change_of_phase'
p149
I232
sS'Differentiation'
p150
I366
sS'Cause_fluidic_motion'
p151
I199
sS'Treating_and_mistreating'
p152
I1158
sS'Attempt_suasion'
p153
I84
sS'Used_up'
p154
I1177
sS'Cause_to_end'
p155
I212
sS'Terrorism'
p156
I1131
sS'Position_on_a_scale'
p157
I835
sS'Giving'
p158
I533
sS'Passing_off'
p159
I798
sS'Assistance'
p160
I73
sS'Placing'
p161
I825
sS'Cause_to_make_noise'
p162
I216
sS'Negation'
p163
I753
sS'Change_direction'
p164
I227
sS'Attaching'
p165
I76
sS'Bragging'
p166
I165
sS'Endangering'
p167
I428
sS'Extreme_point'
p168
I474
sS'Opinion'
p169
I779
sS'Atonement'
p170
I75
sS'Activity_ongoing'
p171
I18
sS'Education_teaching'
p172
I402
sS'Foreign_or_domestic_country'
p173
I507
sS'Memorization'
p174
I731
sS'Improvement_or_decline'
p175
I595
sS'Change_position_on_a_scale'
p176
I237
sS'Measure_volume'
p177
I717
sS'Breathing'
p178
I169
sS'Coming_up_with'
p179
I269
sS'Creating'
p180
I332
sS'Records'
p181
I929
sS'Motion_scenario'
p182
I747
sS'Ingredients'
p183
I612
sS'Cause_emotion'
p184
I197
sS'Appeal'
p185
I52
sS'Guest_and_host'
p186
I551
sS'Membership'
p187
I730
sS'Leadership'
p188
I654
sS'Personal_relationship'
p189
I820
sS'Transfer'
p190
I1147
sS'Arranging'
p191
I62
sS'Verification'
p192
I1186
sS'Source_path_goal'
p193
I1066
sS'Temporal_collocation'
p194
I1123
sS'Abundance'
p195
I5
sS'Being_awake'
p196
I119
sS'Proper_reference'
p197
I890
sS'Text_creation'
p198
I1133
sS'Rate_description'
p199
I914
sS'Weapon'
p200
I1212
sS'Proximity_image_schema'
p201
I896
sS'Domain'
p202
I383
sS'Requirement_scenario'
p203
I971
sS'Explaining_the_facts'
p204
I469
sS'Communicate_categorization'
p205
I282
sS'Causation_scenario'
p206
I190
sS'Standing_by'
p207
I1075
sS'Duration_scenario'
p208
I395
sS'Active_substance'
p209
I13
sS'Quantity'
p210
I903
sS'Facial_expression'
p211
I476
sS'Temporary_leave'
p212
I1127
sS'Imitating'
p213
I586
sS'Being_named'
p214
I133
sS'Artificiality'
p215
I68
sS'Sole_instance'
p216
I1061
sS'Similarity'
p217
I1042
sS'Satisfying'
p218
I1001
sS'Text'
p219
I1132
sS'Part_piece'
p220
I792
sS'Alternatives'
p221
I43
sS'Intentional_traversing'
p222
I622
sS'Operating_a_system'
p223
I777
sS'Becoming_detached'
p224
I110
sS'Fining'
p225
I489
sS'Cause_to_land'
p226
I215
sS'Body_parts'
p227
I159
sS'Launch_process'
p228
I651
sS'Board_vehicle'
p229
I153
sS'Offenses'
p230
I769
sS'Stinginess'
p231
I1081
sS'Undergoing'
p232
I1171
sS'Emotions_by_possibility'
p233
I413
sS'Vocalizations'
p234
I1203
sS'See_through'
p235
I1010
sS'Work'
p236
I1221
sS'Nuclear_process'
p237
I763
sS'Familiarity'
p238
I481
sS'Getting_scenario'
p239
I527
sS'Cause_to_be_dry'
p240
I206
sS'Sound_level'
p241
I1062
sS'Alignment_image_schema'
p242
I41
sS'Trap'
p243
I1155
sS'Spelling_and_pronouncing'
p244
I1072
sS'Deception_success'
p245
I347
sS'Being_attached'
p246
I118
sS'Rashness'
p247
I913
sS'Progression'
p248
I885
sS'Exclude_member'
p249
I451
sS'Attention'
p250
I87
sS'Getting_underway'
p251
I529
sS'Protest'
p252
I894
sS'Abounding_with'
p253
I3
sS'Killing'
p254
I645
sS'Destiny'
p255
I361
sS'Lively_place'
p256
I668
sS'Presentation_of_mitigation'
p257
I860
sS'Emotions_by_stimulus'
p258
I414
sS'Adopt_selection'
p259
I32
sS'Employee_scenario'
p260
I418
sS'Compatibility'
p261
I291
sS'Visitor_scenario'
p262
I1202
sS'Business_closure'
p263
I176
sS'Agree_or_refuse_to_act'
p264
I38
sS'Institutionalization'
p265
I619
sS'People_by_origin'
p266
I809
sS'Region_with_portal'
p267
I936
sS'Accomplishment'
p268
I9
sS'Dominate_situation'
p269
I385
sS'Gusto'
p270
I553
sS'Measure_mass'
p271
I715
sS'Come_down_with'
p272
I264
sS'Attempt_distant_interaction_scenario'
p273
I80
sS'Guilt_or_innocence'
p274
I552
sS'Product_development_scenario'
p275
I883
sS'Out_of_existence'
p276
I786
sS'Manipulate_into_doing'
p277
I700
sS'Transition_to_state'
p278
I1151
sS'Redirecting'
p279
I931
sS'Operate_vehicle'
p280
I775
sS'Cause_to_experience'
p281
I213
sS'Reveal_secret'
p282
I986
sS'Ontogeny'
p283
I773
sS'Obscurity'
p284
I766
sS'Temporal_pattern'
p285
I1124
sS'Locale'
p286
I670
sS'Receiving_scenario'
p287
I926
sS'Coming_to_believe'
p288
I268
sS'Perception_body'
p289
I815
sS'Meet_specifications'
p290
I726
sS'Coincidence'
p291
I258
sS'Provide_lodging'
p292
I895
sS'Weather'
p293
I1214
sS'Sexual_reproduction_scenario'
p294
I1029
sS'Rape'
p295
I912
sS'Existence'
p296
I458
sS'Trust'
p297
I1162
sS'Exporting'
p298
I471
sS'Being_in_captivity'
p299
I125
sS'Experimentation'
p300
I467
sS'Try_defendant'
p301
I1163
sS'Shooting_scenario'
p302
I1035
sS'Recovery'
p303
I930
sS'Hunting'
p304
I578
sS'Temporary_transfer_scenario'
p305
I1129
sS'Unemployment_rate'
p306
I1174
sS'Temperature'
p307
I1122
sS'Victim_operated_IED'
p308
I1188
sS'Withdraw_from_participation'
p309
I1218
sS'Fragmentation_scenario'
p310
I512
sS'Revenge'
p311
I987
sS'Cooking_creation'
p312
I321
sS'Body_decoration'
p313
I154
sS'Representing'
p314
I967
sS'Activity_ready_state'
p315
I22
sS'Commutative_process'
p316
I289
sS'Post_giving'
p317
I839
sS'Sign_agreement'
p318
I1040
sS'Delimited_state_scenario'
p319
I353
sS'Contacting'
p320
I307
sS'Direction'
p321
I369
sS'Judgment_communication'
p322
I636
sS'Detaining'
p323
I364
sS'Emergency'
p324
I406
sS'Estimated_value'
p325
I436
sS'Political_actions'
p326
I831
sS'Smuggling'
p327
I1049
sS'Adjacency'
p328
I30
sS'Robbery'
p329
I996
sS'Expectation'
p330
I460
sS'Hunting_success_or_failure'
p331
I580
sS'Contrition'
p332
I316
sS'Cutting'
p333
I338
sS'Communication_noise'
p334
I286
sS'Legality'
p335
I658
sS'Reference_text'
p336
I932
sS'Losing'
p337
I686
sS'First_rank'
p338
I502
sS'Being_necessary'
p339
I134
sS'Detonate_explosive'
p340
I365
sS'Preference'
p341
I856
sS'Relative_time'
p342
I945
sS'Quantified_mass'
p343
I902
sS'Timespan'
p344
I1140
sS'Rope_manipulation'
p345
I997
sS'Breaking_off'
p346
I167
sS'Compliance'
p347
I295
sS'Putting_out_fire'
p348
I901
sS'Render_nonfunctional'
p349
I957
sS'Motion'
p350
I744
sS'Attempt_means'
p351
I81
sS'Filling'
p352
I488
sS'Fighting_activity'
p353
I487
sS'Posing_as'
p354
I834
sS'Perception_experience'
p355
I816
sS'Emotion_active'
p356
I409
sS'Arraignment'
p357
I61
sS'Social_event'
p358
I1056
sS'Visiting_scenario_departing'
p359
I1197
sS'Self_control'
p360
I1013
sS'Birth_scenario'
p361
I152
sS'Becoming_aware'
p362
I109
sS'Control'
p363
I317
sS'Entourage'
p364
I433
sS'Mental_property'
p365
I734
sS'Convoy'
p366
I320
sS'Source_of_getting'
p367
I1065
sS'Burying'
p368
I175
sS'Opportunity'
p369
I780
sS'Thwarting'
p370
I1137
sS'Renting_out'
p371
I959
sS'Authority'
p372
I92
sS'Locale_by_use'
p373
I675
sS'Cause_to_fragment'
p374
I214
sS'Locale_by_ownership'
p375
I674
sS'Detaching'
p376
I363
sS'Undergoing_scenario'
p377
I1172
sS'Quitting_a_place'
p378
I907
sS'Traversing'
p379
I1157
sS'Sounds'
p380
I1064
sS'Agriculture'
p381
I39
sS'Event'
p382
I440
sS'Cause_motion'
p383
I202
sS'Claim_ownership'
p384
I249
sS'Duration_relation'
p385
I394
sS'Attributed_information'
p386
I90
sS'Cotheme'
p387
I326
sS'Image_schema'
p388
I585
sS'Armor'
p389
I60
sS'Commutative_statement'
p390
I290
sS'Heat_potential'
p391
I564
sS'Exercising'
p392
I457
sS'Corporal_punishment'
p393
I322
sS'Co-association'
p394
I254
sS'Transfer_scenario'
p395
I1148
sS'Employment_scenario'
p396
I423
sS'Change_event_duration'
p397
I228
sS'Substance'
p398
I1092
sS'Reforming_a_system'
p399
I934
sS'Emitting'
p400
I408
sS'Point_of_dispute'
p401
I830
sS'Temporal_subregion'
p402
I1125
sS'Obligation_scenario'
p403
I765
sS'People_by_vocation'
p404
I812
sS'Medical_interaction_scenario'
p405
I721
sS'Biological_classification'
p406
I148
sS'Front_for'
p407
I517
sS'Process_stop'
p408
I876
sS'Surrounding'
p409
I1107
sS'Waking_up'
p410
I1207
sS'Attitude_description'
p411
I89
sS'Location_in_time'
p412
I678
sS'Military_operation'
p413
I739
sS'Expansion'
p414
I459
sS'Light_movement'
p415
I663
sS'Extradition'
p416
I473
sS'Being_questionable'
p417
I139
sS'Residence'
p418
I976
sS'Event_instance'
p419
I443
sS'Aiming'
p420
I40
sS'Planned_trajectory'
p421
I827
sS'Proliferating_in_number'
p422
I888
sS'Sentencing'
p423
I1018
sS'Relation_between_individuals'
p424
I940
sS'Distributed_abundance'
p425
I378
sS'Attempt'
p426
I78
sS'Locale_by_collocation'
p427
I672
sS'Rejuvenation'
p428
I937
sS'Gradable_attributes'
p429
I543
sS'Directional_locative_relation'
p430
I370
sS'Request'
p431
I968
sS'Commerce_collect'
p432
I272
sS'Needing'
p433
I752
sS'Non-gradable_proximity'
p434
I759
sS'Morality_evaluation'
p435
I743
sS'Besieging'
p436
I144
sS'Cause_to_move_in_place'
p437
I218
sS'Visit_host_departure'
p438
I1192
sS'Intentionally_affect'
p439
I624
sS'Inhibit_movement'
p440
I615
sS'Shaped_part'
p441
I1030
sS'Container_focused_removing'
p442
I309
sS'Contingency'
p443
I313
sS'Duplication'
p444
I392
sS'Receiving'
p445
I925
sS'Locating'
p446
I677
sS'Renting'
p447
I958
sS'Deciding'
p448
I348
sS'Win_prize'
p449
I1217
sS'Medical_specialties'
p450
I724
sS'Be_on_alert'
p451
I101
sS'Firefighting'
p452
I498
sS'People'
p453
I803
sS'Access_scenario'
p454
I7
sS'Money'
p455
I742
sS'Process_end'
p456
I871
sS'Moving_in_place'
p457
I748
sS'People_along_political_spectrum'
p458
I804
sS'Clothing_parts'
p459
I253
sS'Sign'
p460
I1039
sS'Artistic_style'
p461
I69
sS'Cure'
p462
I336
sS'Manner'
p463
I703
sS'Typicality'
p464
I1167
sS'Reading_perception'
p465
I919
sS'Manner_of_life'
p466
I704
sS'Ride_vehicle'
p467
I990
sS'Graph_shape'
p468
I545
sS'Undergo_change'
p469
I1169
sS'Physical_entity'
p470
I823
sS'Impact'
p471
I588
sS'Containing'
p472
I311
sS'Secrecy_status'
p473
I1009
sS'Judgment_direct_address'
p474
I637
sS'Tasting'
p475
I1119
sS'Knot_creation_scenario'
p476
I648
sS'Cache'
p477
I178
sS'Visiting_scenario_stay'
p478
I1198
sS'Change_post-state'
p479
I238
sS'Cause_change_of_position_on_a_scale'
p480
I195
sS'Being_detached'
p481
I122
sS'Measure_by_action'
p482
I712
sS'Conquering'
p483
I305
sS'Run_risk'
p484
I999
sS'Ammunition'
p485
I48
sS'Crime_scenario'
p486
I333
sS'Committing_crime'
p487
I280
sS'Biological_area'
p488
I147
sS'Being_pregnant'
p489
I138
sS'Be_in_agreement_on_assessment'
p490
I100
sS'Fugitive'
p491
I519
sS'Rising_to_a_challenge'
p492
I991
sS'Member_of_military'
p493
I729
sS'Expressing_publicly'
p494
I472
sS'Referring_by_name'
p495
I933
sS'Judgment'
p496
I635
sS'Response'
p497
I979
sS'Visit_host_arrival'
p498
I1191
sS'Posture'
p499
I843
sS'Noncombatant'
p500
I760
sS'Having_commercial_agreement'
p501
I560
sS'Deception_scenario'
p502
I346
sS'Omen'
p503
I772
sS'Noise_makers'
p504
I756
sS'Measure_duration'
p505
I713
sS'Execute_plan'
p506
I453
sS'Chaos'
p507
I242
sS'Reasoning'
p508
I921
sS'Labor_product'
p509
I650
sS'Working_a_post'
p510
I1222
sS'Seeking'
p511
I1011
sS'Grooming'
p512
I548
sS'Accoutrements'
p513
I10
sS'Lodging_scenario'
p514
I683
sS'History'
p515
I571
sS'Event_initial_state'
p516
I442
sS'Placing_scenario'
p517
I826
sS'Objective_influence'
p518
I764
sS'Employing'
p519
I420
sS'Pre_receiving'
p520
I850
sS'Hiding_objects'
p521
I567
sS'Disaster_scenario'
p522
I371
sS'Infecting'
p523
I605
sS'Self_motion'
p524
I1014
sS'Absorb_heat'
p525
I4
sS'Dynamic_situation_scenario'
p526
I397
sS'Friction'
p527
I515
sS'Sequence'
p528
I1020
sS'Product_development'
p529
I882
sS'Information_display'
p530
I608
sS'Corroding_caused'
p531
I325
sS'Businesses'
p532
I177
sS'Rewards_and_punishments'
p533
I989
sS'Forging'
p534
I508
sS'Biological_mechanisms'
p535
I150
sS'Goal'
p536
I539
sS'Aging'
p537
I37
sS'Visitor_arrival'
p538
I1200
sS'Preferred_alternative_scenario'
p539
I857
sS'Dying'
p540
I396
sS'Praiseworthiness'
p541
I845
sS'Dressing'
p542
I389
sS'Instance'
p543
I618
sS'Limitation'
p544
I665
sS'Custom'
p545
I337
sS'Subversion'
p546
I1094
sS'Estimating'
p547
I437
sS'Emotion_directed'
p548
I410
sS'Eventive_cognizer_affecting'
p549
I445
sS'Path_shape'
p550
I799
sS'Locative_scenario'
p551
I682
sS'Relational_location'
p552
I941
sS'Fire_going_out'
p553
I496
sS'Make_noise'
p554
I697
sS'Adducing'
p555
I29
sS'Forgiveness'
p556
I509
sS'Social_connection'
p557
I1054
sS'Damaging'
p558
I341
sS'Inclination'
p559
I597
sS'Appointing'
p560
I55
sS'Halt'
p561
I555
sS'Tool_purpose'
p562
I1143
sS'Food'
p563
I505
sS'Turning_out'
p564
I1165
sS'Influencing_potential'
p565
I606
sS'Sidereal_appearance'
p566
I1038
sS'Organization'
p567
I783
sS'Being_obligatory'
p568
I136
sS'History_scenario'
p569
I572
sS'Affirm_or_deny'
p570
I34
sS'Activity_stop'
p571
I25
sS'Living_conditions'
p572
I669
sS'People_by_military_specialty'
p573
I807
sS'Cause_temperature_change'
p574
I204
sS'Wholes_and_parts'
p575
I1215
sS'Meet_with_response'
p576
I728
sS'Namesake'
p577
I750
sS'Arson'
p578
I65
sS'Getting'
p579
I526
sS'Rotting'
p580
I998
sS'Certainty'
p581
I225
sS'Vehicle_subpart'
p582
I1184
sS'Being_in_effect'
p583
I128
sS'Installing'
p584
I617
sS'Dispersal'
p585
I375
sS'Being_incarcerated'
p586
I130
sS'Medical_professionals'
p587
I723
sS'Change_of_temperature'
p588
I235
sS'Ingestion'
p589
I611
sS'Elusive_goal'
p590
I404
sS'Process_continue'
p591
I870
sS'Studying'
p592
I1085
sS'Social_event_collective'
p593
I1057
sS'Visiting_scenario'
p594
I1195
sS'Set_relation'
p595
I1023
sS'Silencing'
p596
I1041
sS'Breaking_apart'
p597
I166
sS'Luck'
p598
I692
sS'Erasing'
p599
I434
sS'Firing'
p600
I499
sS'Losing_track_of_perceiver'
p601
I690
sS'Performing_arts'
p602
I819
sS'Distributed_position'
p603
I379
sS'People_by_residence'
p604
I811
sS'Lending'
p605
I659
sS'Cognitive_connection'
p606
I256
sS'Have_associated'
p607
I558
sS'Employer_scenario'
p608
I419
sS'Losing_it'
p609
I687
sS'Social_behavior_evaluation'
p610
I1053
sS'Bond_maturation'
p611
I160
sS'Store'
p612
I1082
sS'Catching_fire'
p613
I187
sS'Ranked_expectation'
p614
I911
sS'Having_or_lacking_access'
p615
I561
sS'Architectural_part'
p616
I56
sS'Alternativity'
p617
I44
sS'Container_focused_placing'
p618
I308
sS'Catastrophe'
p619
I186
sS'Trendiness'
p620
I1159
sS'Corroding'
p621
I324
sS'Social_interaction_evaluation'
p622
I1059
sS'Searching_scenario'
p623
I1008
sS'Reliance'
p624
I948
sS'Awareness_status'
p625
I96
sS'Remembering_experience'
p626
I952
sS'Subjective_influence'
p627
I1087
sS'Setting_fire'
p628
I1025
sS'Vehicle'
p629
I1181
sS'Timetable'
p630
I1141
sS'Change_of_quantity_of_possession'
p631
I234
sS'Change_of_phase_scenario'
p632
I233
sS'First_experience'
p633
I501
sS'Improvised_explosive_device'
p634
I596
sS'Infrastructure'
p635
I609
sS'Disembarking'
p636
I373
sS'Being_rotted'
p637
I141
sS'Measures'
p638
I718
sS'Get_a_job'
p639
I525
sS'Proportional_quantity'
p640
I892
sS'Volubility'
p641
I1204
sS'Mention'
p642
I737
sS'Craft'
p643
I329
sS'Suitability'
p644
I1100
sS'Telling'
p645
I1121
sS'Setting_out'
p646
I1026
sS'Experiencer_obj'
p647
I466
sS'Required_event'
p648
I970
sS'People_by_religion'
p649
I810
sS'Violence'
p650
I1189
sS'Rank'
p651
I910
sS'Roadways'
p652
I995
sS'Dominate_competitor'
p653
I384
sS'Political_locales'
p654
I832
sS'Increment'
p655
I600
sS'Meet_with'
p656
I727
sS'Responsibility'
p657
I981
sS'Cause_impact'
p658
I201
sS'Sex'
p659
I1028
sS'Endeavor_failure'
p660
I429
sS'Biological_urge'
p661
I151
sS'Institutions'
p662
I620
sS'Employment_start'
p663
I424
sS'Possibility'
p664
I837
sS'Process'
p665
I868
sS'Alliance'
p666
I42
sS'Willingness'
p667
I1216
sS'Pardon'
p668
I787
sS'Substance_by_phase'
p669
I1093
sS'Cause_expansion'
p670
I198
sS'Give_impression'
p671
I532
sS'Invading'
p672
I631
sS'Toxic_substance'
p673
I1146
sS'Arithmetic_non-commutative'
p674
I59
sS'Identicality'
p675
I581
sS'Bounded_region'
p676
I164
sS'Resolve_problem'
p677
I977
sS'Importing'
p678
I591
sS'Suspicion'
p679
I1109
sS'Relational_political_locales'
p680
I943
sS'Temporary_stay'
p681
I1128
sS'Mass_motion'
p682
I707
sS'Use_vehicle'
p683
I1176
sS'Law_enforcement_agency'
p684
I653
sS'Have_as_translation_equivalent'
p685
I557
sS'Funding'
p686
I522
sS'Fire_break'
p687
I492
sS'Evaluative_comparison'
p688
I439
sS'Removing'
p689
I955
sS'Unattributed_information'
p690
I1168
sS'Proportion'
p691
I891
sS'Being_relevant'
p692
I140
sS'Commitment'
p693
I279
sS'Linguistic_meaning'
p694
I667
sS'Citing'
p695
I248
sS'Socially_significant_history_scenario'
p696
I1060
sS'Criminal_process'
p697
I335
sS'Inspecting'
p698
I616
sS'Predicament'
p699
I854
sS'Remembering_information'
p700
I953
sS'Sent_items'
p701
I1017
sS'Use_firearm'
p702
I1175
sS'Basis_for_attribute'
p703
I98
sS'Cognitive_impact'
p704
I257
sS'Buildings'
p705
I173
sS'Isolated_places'
p706
I634
sS'Shopping'
p707
I1036
sS'Taking_sides'
p708
I1116
sS'Finish_competition'
p709
I490
sS'Becoming'
p710
I106
sS'Event_endstate'
p711
I441
sS'Replacing'
p712
I964
sS'Public_services'
p713
I897
sS'Renunciation'
p714
I960
sS'Domination'
p715
I386
sS'Drop_in_on'
p716
I390
sS'Representative'
p717
I966
sS'Wearing'
p718
I1213
sS'Aggregate'
p719
I36
sS'Relation'
p720
I939
sS'Bringing'
p721
I170
sS'Notability'
p722
I761
sS'Fire_stopping_scenario'
p723
I497
sS'Sending'
p724
I1015
sS'Emotions_success_or_failure'
p725
I416
sS'Fullness'
p726
I520
sS'Waver_between_options'
p727
I1210
sS'Health_response'
p728
I562
sS'Borrowing'
p729
I161
sS'Process_initial_state'
p730
I872
sS'Hit_target'
p731
I574
sS'Shapes'
p732
I1031
sS'Cause_to_be_sharp'
p733
I208
sS'Dough_rising'
p734
I387
sS'Kidnapping'
p735
I644
sS'Containment_scenario'
p736
I312
sS'Change_tool'
p737
I241
sS'Protecting'
p738
I893
sS'Hospitality'
p739
I576
sS'Limiting'
p740
I666
sS'Gradable_proximity'
p741
I544
sS'Change_of_leadership'
p742
I231
sS'Touring'
p743
I1145
sS'Cycle_of_life_and_death'
p744
I340
sS'Probability'
p745
I867
sS'Evading'
p746
I438
sS'Desirability'
p747
I358
sS'Exchange'
p748
I449
sS'Sufficiency'
p749
I1098
sS'Regard'
p750
I935
sS'Change_operational_state'
p751
I236
sS'Visit_host_stay'
p752
I1193
sS'Degree_of_processing'
p753
I351
sS'System_complexity'
p754
I1112
sS'Adding_up'
p755
I28
sS'Sports_jargon'
p756
I1073
sS'Asymmetric_reciprocality'
p757
I74
sS'Emptying'
p758
I425
sS'Response_scenario'
p759
I980
sS'Being_obligated'
p760
I135
sS'Death'
p761
I344
sS'Completeness'
p762
I294
sS'Daring'
p763
I342
sS'Measure_linear_extent'
p764
I714
sS'Information'
p765
I607
sS'Electricity'
p766
I403
sS'Scouring'
p767
I1005
sS'Discussion'
p768
I372
sS'Team'
p769
I1120
sS'Ambient_temperature'
p770
I47
sS'Evoking'
p771
I447
sS'Non-commutative_process'
p772
I757
sS'Forgoing'
p773
I510
sS'Friendly_or_hostile'
p774
I516
sS'Translating'
p775
I1153
sS'Boundary'
p776
I162
sS'Fall_asleep'
p777
I478
sS'Simultaneity'
p778
I1045
sS'Counterattack'
p779
I327
sS'Amalgamation'
p780
I45
sS'Popularity'
p781
I833
sS'Be_translation_equivalent'
p782
I103
sS'Activity_resume'
p783
I23
sS'Successfully_communicate_message'
p784
I1097
sS'Degree'
p785
I350
sS'Research'
p786
I973
sS'Have_visitor_over'
p787
I559
sS'Predicting'
p788
I855
sS'Going_back_on_a_commitment'
p789
I540
sS'Emanating'
p790
I405
sS'Partiality'
p791
I794
sS'Difficulty'
p792
I367
sS'Accompaniment'
p793
I8
sS'Exchange_currency'
p794
I450
sS'Assemble'
p795
I70
sS'Circumscribed_existence'
p796
I247
sS'Attempt_action_scenario'
p797
I79
sS'Motion_noise'
p798
I746
sS'Identity'
p799
I582
sS'Getting_triggered'
p800
I528
sS'Closure'
p801
I251
sS'Process_stopped_state'
p802
I877
sS'Intoxicants'
p803
I629
sS'Appellations'
p804
I53
sS'Create_representation'
p805
I331
sS'Transition_to_a_situation'
p806
I1150
sS'Stage_of_progress'
p807
I1074
sS'Simple_naming'
p808
I1044
sS'Lose_possession'
p809
I684
sS'Attention_getting'
p810
I88
sS'Cause_to_wake'
p811
I223
sS'Recording'
p812
I928
sS'Body_movement'
p813
I158
sS'Severity_of_offense'
p814
I1027
sS'Mental_activity'
p815
I733
sS'Create_physical_artwork'
p816
I330
sS'Suicide_attack'
p817
I1099
sS'Cause_to_burn'
p818
I210
sS'Impression'
p819
I593
sS'Heralding'
p820
I566
sS'Visitor_and_host'
p821
I1199
sS'Take_place_of'
p822
I1113
sS'Sleep_wake_cycle'
p823
I1048
sS'Becoming_dry'
p824
I111
sS'Biological_entity'
p825
I149
sS'Inclusion'
p826
I598
sS'Abandonment'
p827
I2
sS'Body_mark'
p828
I157
sS'Risk_scenario'
p829
I992
sS'Social_desirability'
p830
I1055
sS'Removing_scenario'
p831
I956
sS'Expertise'
p832
I468
sS'Being_wet'
p833
I143
sS'Communication'
p834
I283
sS'Openness'
p835
I774
sS'Pre_lose_possession'
p836
I849
sS'Medical_instruments'
p837
I720
sS'Size'
p838
I1046
sS'Sharing'
p839
I1032
sS'Assessing'
p840
I71
sS'Temporary_group'
p841
I1126
sS'Sharpness'
p842
I1033
sS'Memory'
p843
I732
sS'Patrolling'
p844
I801
sS'Transition_to_a_quality'
p845
I1149
sS'Measure_area'
p846
I711
sS'Confronting_problem'
p847
I302
sS'Word_relations'
p848
I1220
sS'Prison'
p849
I866
sS'Reciprocality'
p850
I927
sS'Preventing_or_letting'
p851
I864
sS'Amassing'
p852
I46
sS'Achieving_first'
p853
I12
sS'Making_faces'
p854
I699
sS'Capital_stock'
p855
I183
sS'Gizmo'
p856
I537
sS'Freeing_from_confinement'
p857
I513
sS'Offering'
p858
I770
sS'People_by_morality'
p859
I808
sS'Condition_symptom_relation'
p860
I297
sS'Using_resource'
p861
I1180
sS'Part_orientational'
p862
I791
sS'Artifact'
p863
I66
sS'Scrutiny'
p864
I1007
sS'Communication_means'
p865
I285
sS'Locale_by_event'
p866
I673
sS'Set_of_interrelated_entities'
p867
I1022
sS'Subordinates_and_superiors'
p868
I1090
sS'Indicating'
p869
I601
sS'Operational_testing'
p870
I778
sS'Idiosyncrasy'
p871
I584
sS'Cogitation'
p872
I255
sS'Taking'
p873
I1114
sS'Reading_aloud'
p874
I918
sS'Frugality'
p875
I518
sS'Entering_of_plea'
p876
I431
sS'Contrary_circumstances'
p877
I315
sS'Rescuing'
p878
I972
sS'Reparation'
p879
I961
sS'Avoiding'
p880
I93
sS'Commerce_pay'
p881
I275
sS'Request_entity'
p882
I969
sS'Result_of_attempt_scenario'
p883
I983
sS'Post_lose_possession'
p884
I840
sS'Capability'
p885
I181
sS'Eventive_affecting'
p886
I444
sS'Surrendering'
p887
I1105
sS'Assigned_location'
p888
I72
sS'Exemplar'
p889
I455
sS'Losing_track_of_theme'
p890
I691
sS'Activity'
p891
I14
sS'Cause_to_perceive'
p892
I219
sS'Cause_to_continue'
p893
I211
sS'Chemical_potency'
p894
I245
sS'Medium'
p895
I725
sS'Dodging'
p896
I382
sS'Make_compromise'
p897
I696
sS'Project'
p898
I887
sS'Invasion_scenario'
p899
I632
sS'Losing_someone'
p900
I688
sS'Price_per_unit'
p901
I865
sS'Conditional_scenario'
p902
I299
sS'Obviousness'
p903
I767
sS'Distant_operated_IED'
p904
I376
sS'Being_up_to_it'
p905
I142
sS'Body_description_holistic'
p906
I155
sS'Sacrificing_for'
p907
I1000
sS'Calendric_unit'
p908
I179
sS'Being_located'
p909
I132
sS'Usefulness'
p910
I1178
sS'State_of_entity'
p911
I1078
sS'Cause_to_be_included'
p912
I207
sS'Prank'
p913
I846
sS'Clothing'
p914
I252
sS'Import_export_scenario'
p915
I589
sS'Supply'
p916
I1102
sS'Annoyance'
p917
I51
sS'Visiting_scenario_arrival'
p918
I1196
sS'Vehicle_departure_initial_stage'
p919
I1182
sS'Deserving'
p920
I357
sS'Piracy'
p921
I824
sS'Quarreling'
p922
I904
sS'Locale_by_characteristic_entity'
p923
I671
sS'Have_as_requirement'
p924
I556
sS'Commerce_sell'
p925
I277
sS'Emotions'
p926
I412
sS'Relating_concepts'
p927
I938
sS'Distinctiveness'
p928
I377
sS'Offshoot'
p929
I771
sS'Occupy_rank'
p930
I768
sS'Examination'
p931
I448
sS'Dead_or_alive'
p932
I343
sS'Statement'
p933
I1079
sS'Change_of_consistency'
p934
I230
sS'Scope'
p935
I1004
sS'Preliminaries'
p936
I858
sS'Arithmetic'
p937
I57
sS'Hedging'
p938
I565
sS'Abusing'
p939
I6
sS'Visitor_departure'
p940
I1201
sS'Getting_vehicle_underway'
p941
I531
sS'Quitting'
p942
I906
sS'Visiting'
p943
I1194
sS'Undressing'
p944
I1173
sS'Trying_out'
p945
I1164
sS'Colonization'
p946
I261
sS'Risky_situation'
p947
I993
sS'Reason'
p948
I920
sS'Downing'
p949
I388
sS'Triggering'
p950
I1161
sS'Enforcing'
p951
I430
sS'Cause_change'
p952
I192
sS'Make_acquaintance'
p953
I693
sS'Likelihood'
p954
I664
sS'Travel'
p955
I1156
sS'Process_start'
p956
I875
sS'Building'
p957
I171
sS'Social_event_individuals'
p958
I1058
sS'Court_examination'
p959
I328
sS'Procreative_sex'
p960
I880
sS'Commerce_buy'
p961
I271
sS'Activity_start'
p962
I24
sS'Being_active'
p963
I116
sS'Activity_prepare'
p964
I21
sS'Eclipse'
p965
I400
sS'Soaking'
p966
I1050
sS'Margin_of_resolution'
p967
I706
sS'Just_found_out'
p968
I641
sS'Legal_rulings'
p969
I657
sS'Subjective_temperature'
p970
I1088
sS'Ceasing_to_be'
p971
I224
sS'Conditional_occurrence'
p972
I298
sS'Actually_occurring_entity'
p973
I26
sS'Grasp'
p974
I546
sS'Attributes'
p975
I91
sS'Intercepting'
p976
I626
sS'Talking_into'
p977
I1118
sS'Cause_to_resume'
p978
I220
sS'Prevent_or_allow_possession'
p979
I863
sS'Employment_end'
p980
I422
sS'Manufacturing'
p981
I705
sS'Encoding'
p982
I426
sS'Passing'
p983
I797
sS'Pre_giving'
p984
I848
sS'Intentionally_create'
p985
I625
sS'Giving_in'
p986
I535
sS'Hiring'
p987
I569
sS'Religious_belief'
p988
I950
sS'Using'
p989
I1179
sS'Punctual_perception'
p990
I899
sS'Color_qualities'
p991
I263
sS'Fear'
p992
I483
sS'Manipulate_into_shape'
p993
I701
sS'Cardinal_numbers'
p994
I184
sS'Documents'
p995
I381
sS'Stimulus_focus'
p996
I1080
sS'Suasion'
p997
I1086
sS'Pattern'
p998
I802
sS'Becoming_a_member'
p999
I107
sS'Fire_emergency_scenario'
p1000
I494
sS'System'
p1001
I1111
sS'Rebellion'
p1002
I923
sS'Commemorative'
p1003
I270
sS'Sociability'
p1004
I1052
sS'Activity_finish'
p1005
I17
sS'Bounded_entity'
p1006
I163
sS'Soaking_up'
p1007
I1051
sS'People_by_age'
p1008
I805
sS'Commerce_money-transfer'
p1009
I274
sS'Convey_importance'
p1010
I319
sS'Rite'
p1011
I994
sS'Economy'
p1012
I401
sS'Possession'
p1013
I836
sS'Time_vector'
p1014
I1139
sS'Delimitation_of_diversity'
p1015
I352
sS'Submitting_documents'
p1016
I1089
sS'Chatting'
p1017
I243
sS'Cause_to_make_progress'
p1018
I217
sS'Others_situation_as_stimulus'
p1019
I785
sS'Indigenous_origin'
p1020
I602
sS'Spatial_co-location'
p1021
I1067
sS'Motion_directional'
p1022
I745
sS'Bungling'
p1023
I174
sS'Level_of_force_resistance'
p1024
I661
sS'Cause_change_of_phase'
p1025
I194
sS'Transitive_action'
p1026
I1152
sS'Taking_time'
p1027
I1117
sS'Respond_to_proposal'
p1028
I978
sS'Manipulation'
p1029
I702
sS'Bearing_arms'
p1030
I104
sS'Part_ordered_segments'
p1031
I790
sS'Judicial_body'
p1032
I639
sS'Process_uncompleted_state'
p1033
I878
sS'Part_inner_outer'
p1034
I789
sS'Function'
p1035
I521
sS'Product_delivery'
p1036
I881
sS'Notification_of_charges'
p1037
I762
sS'Performers'
p1038
I817
sS'Prominence'
p1039
I889
sS'Historic_event'
p1040
I570
sS'Transportation_status'
p1041
I1154
sS'Performers_and_roles'
p1042
I818
sS'Go_into_shape'
p1043
I538
sS'Range'
p1044
I909
sS'Cycle_of_existence_scenario'
p1045
I339
sS'Exemplariness'
p1046
I456
sS'Visit_host'
p1047
I1190
sS'Escaping'
p1048
I435
sS'Apply_heat'
p1049
I54
sS'Gesture'
p1050
I524
sS'Artifact_subpart'
p1051
I67
sS'Revolution'
p1052
I988
sS'Emotions_of_mental_activity'
p1053
I415
sS'Hearsay'
p1054
I563
sS'Being_born'
p1055
I120
sS'Ordinal_numbers'
p1056
I782
sS'Wagering'
p1057
I1205
sS'Commerce_scenario'
p1058
I276
sS'Measurable_attributes'
p1059
I710
sS'Surpassing'
p1060
I1104
sS'Evidence'
p1061
I446
sS'Body_description_part'
p1062
I156
sS'Behind_the_scenes'
p1063
I115
sS'Deception_end'
p1064
I345
sS'Amounting_to'
p1065
I49
sS'Criminal_investigation'
p1066
I334
sS'Scarcity'
p1067
I1002
sS'Reliance_on_expectation'
p1068
I949
sS'Medical_intervention'
p1069
I722
sS'Food_gathering'
p1070
I506
sS'Activity_pause'
p1071
I19
sS'Controller_object'
p1072
I318
sS'Releasing'
p1073
I946
sS'Capacity'
p1074
I182
sS'Coming_to_be'
p1075
I267
sS'Billing'
p1076
I146
sS'Collocation_image_schema'
p1077
I260
sS'Duration_description'
p1078
I393
sS'Being_in_category'
p1079
I126
sS'Speak_on_topic'
p1080
I1069
sS'Cause_bodily_experience'
p1081
I191
sS'Want_suspect'
p1082
I1208
sS'Scrutinizing_for'
p1083
I1006
sS'Pre_transfer'
p1084
I851
sS'Perception'
p1085
I813
sS'Awareness'
p1086
I94
sS'Accuracy'
p1087
I11
sS'Prevarication'
p1088
I862
sS'Specific_individual'
p1089
I1070
sS'Cause_change_of_consistency'
p1090
I193
sS'Speed_description'
p1091
I1071
sS'Diversity'
p1092
I380
sS'Sensation'
p1093
I1016
sS'Interior_profile_relation'
p1094
I627
sS'Ineffability'
p1095
I604
sS'Processing_materials'
p1096
I879
sS'Beat_opponent'
p1097
I105
sS'Inherent_purpose'
p1098
I613
sS'Complaining'
p1099
I293
sS'Ingest_substance'
p1100
I610
sS'Misdeed'
p1101
I741
sS'Fire_end_scenario'
p1102
I495
sS'Execution'
p1103
I454
sS'Precipitation'
p1104
I853
sS'Natural_features'
p1105
I751
sS'Feigning'
p1106
I485
sS'Ground_up'
p1107
I549
sS'Commonality'
p1108
I281
sS'Animals'
p1109
I50
sS'Optical_image'
p1110
I781
sS'Wealthiness'
p1111
I1211
sS'Finish_game'
p1112
I491
sS'Prohibiting_or_licensing'
p1113
I886
sS'Being_dry'
p1114
I123
sS'Ratification'
p1115
I916
sS'Part_edge'
p1116
I788
sS'State_continue'
p1117
I1077
sS'Level_of_force_exertion'
p1118
I660
sS'Subsisting'
p1119
I1091
sS'Means'
p1120
I709
sS'Partitive'
p1121
I796
sS'Reading_activity'
p1122
I917
sS'Attempt_obtain_food_scenario'
p1123
I82
sS'Make_cognitive_connection'
p1124
I695
sS'Conferring_benefit'
p1125
I301
sS'Becoming_visible'
p1126
I114
sS'Contact_image_schema'
p1127
I306
sS'Seeking_to_achieve'
p1128
I1012
sS'Desirable_event'
p1129
I359
sS'Mathematical_relationship'
p1130
I708
sS'Being_at_risk'
p1131
I117
sS'Imposing_obligation'
p1132
I592
sS'Grinding'
p1133
I547
sS'Commercial_transaction'
p1134
I278
sS'Being_included'
p1135
I131
sS'Expected_location_of_person'
p1136
I461
sS'Earnings_and_losses'
p1137
I399
sS'Physical_artworks'
p1138
I822
sS'Warning'
p1139
I1209
sS'Relational_quantity'
p1140
I944
sS'Be_in_agreement_on_action'
p1141
I99
sS'Desiring'
p1142
I360
sS'Giving_scenario'
p1143
I536
sS'Emergency_fire'
p1144
I407
sS'Categorization'
p1145
I188
sS'Negative_conditional'
p1146
I754
sS'Commutation'
p1147
I288
sS'Left_to_do'
p1148
I656
sS'Setting_back_burn'
p1149
I1024
sS'Irregular_combatants'
p1150
I633
sS'Process_pause'
p1151
I873
sS'Within_distance'
p1152
I1219
sS'Pre_getting'
p1153
I847
sS'Attack'
p1154
I77
sS'Knot_creation'
p1155
I647
sS'Terms_of_agreement'
p1156
I1130
sS'Experience_bodily_harm'
p1157
I464
sS'Chemical-sense_description'
p1158
I244
sS'Activity_abandoned_state'
p1159
I15
sS'Frequency'
p1160
I514
sS'Separating'
p1161
I1019
sS'Containers'
p1162
I310
sS'Communication_response'
p1163
I287
sS'Make_agreement_on_action'
p1164
I694
sS'Mining'
p1165
I740
sS'Extreme_value'
p1166
I475
sS'Explosion'
p1167
I470
sS'Locale_closure'
p1168
I676
sS'Type'
p1169
I1166
sS'Connecting_architecture'
p1170
I303
sS'Version_sequence'
p1171
I1187
sS'Being_operational'
p1172
I137
sS'Race_descriptor'
p1173
I908
sS'Delivery'
p1174
I354
sS'Post_transfer'
p1175
I842
sS'Intentionally_act'
p1176
I623
sS'Hair_configuration'
p1177
I554
sS'Rate_quantification'
p1178
I915
sS'Change_posture'
p1179
I239
sS'Retaining'
p1180
I985
sS'Non-commutative_statement'
p1181
I758
sS'Experiencer_focus'
p1182
I465
sS'Law'
p1183
I652
sS'Cause_change_of_strength'
p1184
I196
sS'Inclusion_scenario'
p1185
I599
sS'Relational_natural_features'
p1186
I942
sS'Judgment_of_intensity'
p1187
I638
sS'Change_accessibility'
p1188
I226
sS'Cause_to_start'
p1189
I222
sS'Gradable_artistic_quality'
p1190
I542
sS'Fields'
p1191
I486
sS'Candidness'
p1192
I180
sS'Fairness_evaluation'
p1193
I477
sS'Correctness'
p1194
I323
sS'Jury_deliberation'
p1195
I640
sS'Trial'
p1196
I1160
sS'Location_of_light'
p1197
I679
sS'Part_whole'
p1198
I793
sS'Mental_stimulus_stimulus_focus'
p1199
I736
sS'Publishing'
p1200
I898
sS'Addiction'
p1201
I27
sS'Expend_resource'
p1202
I462
sS'Measure_scenario'
p1203
I716
sS'Cause_to_be_wet'
p1204
I209
sS'Immobilization'
p1205
I587
sS'Hit_or_miss'
p1206
I573
sS'Surviving'
p1207
I1108
sS'Departing'
p1208
I356
sS'Color'
p1209
I262
sS'Deny_or_grant_permission'
p1210
I355
sS'Product_line'
p1211
I884
sS'Intentional_deception'
p1212
I621
sS'Gathering_up'
p1213
I523
sS'Change_event_time'
p1214
I229
sS'Interrupt_process'
p1215
I628
sS'Sleep'
p1216
I1047
sS'Attempting_and_resolving_scenario'
p1217
I85
sS'Concessive'
p1218
I296
sS'Scheduling'
p1219
I1003
sS'Verdict'
p1220
I1185
sS'Fame'
p1221
I480
s.